target datalayout = "e-m:e-p270:32:32-p271:32:32-p272:64:64-i64:64-i128:128-f80:128-n8:16:32:64-S128"
target triple = "x86_64-pc-linux-gnu"

%struct._typeobject = type { %struct.PyVarObject, ptr, i64, i64, ptr, i64, ptr, ptr, ptr, ptr, ptr, ptr, ptr, ptr, ptr, ptr, ptr, ptr, ptr, i64, ptr, ptr, ptr, ptr, i64, ptr, ptr, ptr, ptr, ptr, ptr, ptr, ptr, ptr, i64, ptr, ptr, ptr, ptr, ptr, ptr, ptr, ptr, ptr, ptr, ptr, i32, ptr, ptr, i8, i16 }
%struct.PyVarObject = type { %struct._object, i64 }
%struct._object = type { %union.anon, ptr }
%union.anon = type { i64 }
%struct._ts = type { ptr, ptr, ptr, i64, %struct.anon.0, i32, i32, i32, i32, i32, i32, i32, i32, ptr, ptr, ptr, ptr, ptr, ptr, ptr, ptr, i32, ptr, i64, i64, ptr, i64, i32, ptr, ptr, ptr, i64, i64, ptr, ptr, ptr, %struct._err_stackitem, ptr, i64, ptr, ptr }
%struct.anon.0 = type { i32 }
%struct._err_stackitem = type { ptr, ptr }
%struct.anon = type { i32, i32 }
%struct.__va_list_tag = type { i32, i32, ptr, ptr }

@PyExc_SystemError = external global ptr, align 8
@PyExc_TypeError = external global ptr, align 8
@_Py_tss_tstate = external thread_local global ptr, align 8
@.str.13 = private unnamed_addr constant [34 x i8] c"null argument to internal routine\00", align 1
@.str.14 = private unnamed_addr constant [43 x i8] c"attribute of type '%.200s' is not callable\00", align 1

; Function Attrs: alwaysinline nounwind uwtable
define internal i32 @_Py_IsImmortal(ptr noundef %0) #3 {
  %2 = alloca ptr, align 8
  store ptr %0, ptr %2, align 8, !tbaa !9
  %3 = load ptr, ptr %2, align 8, !tbaa !9
  %4 = getelementptr inbounds nuw %struct._object, ptr %3, i32 0, i32 0
  %5 = getelementptr inbounds nuw %struct.anon, ptr %4, i32 0, i32 0
  %6 = load i32, ptr %5, align 8, !tbaa !24
  %7 = icmp slt i32 %6, 0
  %8 = zext i1 %7 to i32
  ret i32 %8
}

; Function Attrs: inlinehint nounwind uwtable
define internal ptr @_Py_TYPE(ptr noundef %0) #1 {
  %2 = alloca ptr, align 8
  store ptr %0, ptr %2, align 8, !tbaa !9
  %3 = load ptr, ptr %2, align 8, !tbaa !9
  %4 = getelementptr inbounds nuw %struct._object, ptr %3, i32 0, i32 1
  %5 = load ptr, ptr %4, align 8, !tbaa !35
  ret ptr %5
}

; Function Attrs: inlinehint nounwind uwtable
define internal ptr @_PyErr_Occurred(ptr noundef %0) #1 {
  %2 = alloca ptr, align 8
  %3 = alloca ptr, align 8
  store ptr %0, ptr %3, align 8, !tbaa !4
  %4 = load ptr, ptr %3, align 8, !tbaa !4
  %5 = getelementptr inbounds nuw %struct._ts, ptr %4, i32 0, i32 18
  %6 = load ptr, ptr %5, align 8, !tbaa !13
  %7 = icmp eq ptr %6, null
  br i1 %7, label %8, label %9

8:                                                ; preds = %1
  store ptr null, ptr %2, align 8
  br label %14

9:                                                ; preds = %1
  %10 = load ptr, ptr %3, align 8, !tbaa !4
  %11 = getelementptr inbounds nuw %struct._ts, ptr %10, i32 0, i32 18
  %12 = load ptr, ptr %11, align 8, !tbaa !13
  %13 = call ptr @_Py_TYPE(ptr noundef %12)
  store ptr %13, ptr %2, align 8
  br label %14

14:                                               ; preds = %9, %8
  %15 = load ptr, ptr %2, align 8
  ret ptr %15
}

; Function Attrs: alwaysinline nounwind uwtable
define internal void @Py_DECREF(ptr noundef %0) #3 {
  %2 = alloca ptr, align 8
  store ptr %0, ptr %2, align 8, !tbaa !9
  %3 = load ptr, ptr %2, align 8, !tbaa !9
  %4 = call i32 @_Py_IsImmortal(ptr noundef %3)
  %5 = icmp ne i32 %4, 0
  br i1 %5, label %6, label %7

6:                                                ; preds = %1
  br label %16

7:                                                ; preds = %1
  %8 = load ptr, ptr %2, align 8, !tbaa !9
  %9 = getelementptr inbounds nuw %struct._object, ptr %8, i32 0, i32 0
  %10 = getelementptr inbounds nuw %struct.anon, ptr %9, i32 0, i32 0
  %11 = load i32, ptr %10, align 8, !tbaa !24
  %12 = add i32 %11, -1
  store i32 %12, ptr %10, align 8, !tbaa !24
  %13 = icmp eq i32 %12, 0
  br i1 %13, label %14, label %16

14:                                               ; preds = %7
  %15 = load ptr, ptr %2, align 8, !tbaa !9
  call void @_Py_Dealloc(ptr noundef %15)
  br label %16

16:                                               ; preds = %6, %14, %7
  ret void
}

; Function Attrs: nounwind uwtable
define internal ptr @callmethod(ptr noundef %0, ptr noundef %1, ptr noundef %2, ptr noundef %3) #0 {
  %5 = alloca ptr, align 8
  %6 = alloca ptr, align 8
  %7 = alloca ptr, align 8
  %8 = alloca ptr, align 8
  %9 = alloca ptr, align 8
  store ptr %0, ptr %6, align 8, !tbaa !4
  store ptr %1, ptr %7, align 8, !tbaa !9
  store ptr %2, ptr %8, align 8, !tbaa !11
  store ptr %3, ptr %9, align 8, !tbaa !57
  %10 = load ptr, ptr %7, align 8, !tbaa !9
  %11 = call i32 @PyCallable_Check(ptr noundef %10)
  %12 = icmp ne i32 %11, 0
  br i1 %12, label %21, label %13

13:                                               ; preds = %4
  %14 = load ptr, ptr %6, align 8, !tbaa !4
  %15 = load ptr, ptr @PyExc_TypeError, align 8, !tbaa !9
  %16 = load ptr, ptr %7, align 8, !tbaa !9
  %17 = call ptr @_Py_TYPE(ptr noundef %16)
  %18 = getelementptr inbounds nuw %struct._typeobject, ptr %17, i32 0, i32 1
  %19 = load ptr, ptr %18, align 8, !tbaa !26
  %20 = call ptr (ptr, ptr, ptr, ...) @_PyErr_Format(ptr noundef %14, ptr noundef %15, ptr noundef @.str.14, ptr noundef %19)
  store ptr null, ptr %5, align 8
  br label %27

21:                                               ; preds = %4
  %22 = load ptr, ptr %6, align 8, !tbaa !4
  %23 = load ptr, ptr %7, align 8, !tbaa !9
  %24 = load ptr, ptr %8, align 8, !tbaa !11
  %25 = load ptr, ptr %9, align 8, !tbaa !57
  %26 = call ptr @_PyObject_CallFunctionVa(ptr noundef %22, ptr noundef %23, ptr noundef %24, ptr noundef %25)
  store ptr %26, ptr %5, align 8
  br label %27

27:                                               ; preds = %21, %13
  %28 = load ptr, ptr %5, align 8
  ret ptr %28
}

; Function Attrs: nounwind uwtable
define internal ptr @null_error(ptr noundef %0) #0 {
  %2 = alloca ptr, align 8
  store ptr %0, ptr %2, align 8, !tbaa !4
  %3 = load ptr, ptr %2, align 8, !tbaa !4
  %4 = call ptr @_PyErr_Occurred(ptr noundef %3)
  %5 = icmp ne ptr %4, null
  br i1 %5, label %9, label %6

6:                                                ; preds = %1
  %7 = load ptr, ptr %2, align 8, !tbaa !4
  %8 = load ptr, ptr @PyExc_SystemError, align 8, !tbaa !9
  call void @_PyErr_SetString(ptr noundef %7, ptr noundef %8, ptr noundef @.str.13)
  br label %9

9:                                                ; preds = %6, %1
  ret ptr null
}

; Function Attrs: inlinehint nounwind uwtable
define internal ptr @_PyThreadState_GET() #1 {
  %1 = call align 8 ptr @llvm.threadlocal.address.p0(ptr align 8 @_Py_tss_tstate)
  %2 = load ptr, ptr %1, align 8, !tbaa !4
  ret ptr %2
}

; Function Attrs: nounwind uwtable
define dso_local ptr @_PyObject_CallMethodId(ptr noundef %0, ptr noundef %1, ptr noundef %2, ...) #0 {
  %4 = alloca ptr, align 8
  %5 = alloca ptr, align 8
  %6 = alloca ptr, align 8
  %7 = alloca ptr, align 8
  %8 = alloca ptr, align 8
  %9 = alloca i32, align 4
  %10 = alloca ptr, align 8
  %11 = alloca [1 x %struct.__va_list_tag], align 16
  %12 = alloca ptr, align 8
  store ptr %0, ptr %5, align 8, !tbaa !9
  store ptr %1, ptr %6, align 8, !tbaa !60
  store ptr %2, ptr %7, align 8, !tbaa !11
  call void @llvm.lifetime.start.p0(i64 8, ptr %8) #9
  %13 = call ptr @_PyThreadState_GET()
  store ptr %13, ptr %8, align 8, !tbaa !4
  %14 = load ptr, ptr %5, align 8, !tbaa !9
  %15 = icmp eq ptr %14, null
  br i1 %15, label %19, label %16

16:                                               ; preds = %3
  %17 = load ptr, ptr %6, align 8, !tbaa !60
  %18 = icmp eq ptr %17, null
  br i1 %18, label %19, label %22

19:                                               ; preds = %16, %3
  %20 = load ptr, ptr %8, align 8, !tbaa !4
  %21 = call ptr @null_error(ptr noundef %20)
  store ptr %21, ptr %4, align 8
  store i32 1, ptr %9, align 4
  br label %40

22:                                               ; preds = %16
  call void @llvm.lifetime.start.p0(i64 8, ptr %10) #9
  %23 = load ptr, ptr %5, align 8, !tbaa !9
  %24 = load ptr, ptr %6, align 8, !tbaa !60
  %25 = call ptr @_PyObject_GetAttrId(ptr noundef %23, ptr noundef %24)
  store ptr %25, ptr %10, align 8, !tbaa !9
  %26 = load ptr, ptr %10, align 8, !tbaa !9
  %27 = icmp eq ptr %26, null
  br i1 %27, label %28, label %29

28:                                               ; preds = %22
  store ptr null, ptr %4, align 8
  store i32 1, ptr %9, align 4
  br label %39

29:                                               ; preds = %22
  call void @llvm.lifetime.start.p0(i64 24, ptr %11) #9
  %30 = getelementptr inbounds [1 x %struct.__va_list_tag], ptr %11, i64 0, i64 0
  call void @llvm.va_start.p0(ptr %30)
  call void @llvm.lifetime.start.p0(i64 8, ptr %12) #9
  %31 = load ptr, ptr %8, align 8, !tbaa !4
  %32 = load ptr, ptr %10, align 8, !tbaa !9
  %33 = load ptr, ptr %7, align 8, !tbaa !11
  %34 = getelementptr inbounds [1 x %struct.__va_list_tag], ptr %11, i64 0, i64 0
  %35 = call ptr @callmethod(ptr noundef %31, ptr noundef %32, ptr noundef %33, ptr noundef %34)
  store ptr %35, ptr %12, align 8, !tbaa !9
  %36 = getelementptr inbounds [1 x %struct.__va_list_tag], ptr %11, i64 0, i64 0
  call void @llvm.va_end.p0(ptr %36)
  %37 = load ptr, ptr %10, align 8, !tbaa !9
  call void @Py_DECREF(ptr noundef %37)
  %38 = load ptr, ptr %12, align 8, !tbaa !9
  store ptr %38, ptr %4, align 8
  store i32 1, ptr %9, align 4
  call void @llvm.lifetime.end.p0(i64 8, ptr %12) #9
  call void @llvm.lifetime.end.p0(i64 24, ptr %11) #9
  br label %39

39:                                               ; preds = %29, %28
  call void @llvm.lifetime.end.p0(i64 8, ptr %10) #9
  br label %40

40:                                               ; preds = %39, %19
  call void @llvm.lifetime.end.p0(i64 8, ptr %8) #9
  %41 = load ptr, ptr %4, align 8
  ret ptr %41
}